target datalayout = "e-m:e-p270:32:32-p271:32:32-p272:64:64-i64:64-i128:128-f80:128-n8:16:32:64-S128"
target triple = "x86_64-pc-linux-gnu"

%struct._lv_vector_draw_dsc_t = type { %struct._lv_vector_fill_dsc_t, %struct._lv_vector_stroke_dsc_t, %struct._lv_matrix_t, i32, %struct.lv_area_t }
%struct._lv_vector_fill_dsc_t = type { i32, %struct.lv_color32_t, i8, i32, %struct._lv_draw_image_dsc_t, %struct._lv_vector_gradient_t, %struct._lv_matrix_t }
%struct.lv_color32_t = type { i8, i8, i8, i8 }
%struct._lv_draw_image_dsc_t = type { %struct.lv_draw_dsc_base_t, ptr, %struct.lv_image_header_t, i32, i32, i32, i32, i32, %struct.lv_point_t, %struct.lv_color_t, i8, i8, i8, ptr, %struct.lv_area_t, i32, ptr }
%struct.lv_draw_dsc_base_t = type { ptr, i32, i32, i32, ptr, i64, ptr }
%struct.lv_image_header_t = type <{ i64, i32 }>
%struct.lv_point_t = type { i32, i32 }
%struct.lv_color_t = type { i8, i8, i8 }
%struct._lv_vector_gradient_t = type { i32, [2 x %struct.lv_gradient_stop_t], i16, float, float, float, float, float, float, float, i32 }
%struct.lv_gradient_stop_t = type { %struct.lv_color_t, i8, i8 }
%struct._lv_vector_stroke_dsc_t = type { i32, %struct.lv_color32_t, i8, float, %struct._lv_array_t, i32, i32, i16, %struct._lv_vector_gradient_t, %struct._lv_matrix_t }
%struct._lv_array_t = type { ptr, i32, i32, i32, i8 }
%struct._lv_matrix_t = type { [3 x [3 x float]] }
%struct.lv_area_t = type { i32, i32, i32, i32 }
%struct._lv_svg_render_obj = type { ptr, i32, ptr, %struct._lv_vector_draw_dsc_t, %struct._lv_matrix_t, ptr, ptr, ptr, ptr, ptr, ptr, ptr, ptr, ptr }
%struct.lv_svg_render_solid_t = type { %struct._lv_svg_render_obj, %struct.lv_color_t, float }

; Function Attrs: nounwind uwtable
define internal void @_set_solid_ref(ptr noundef %0, ptr noundef %1, ptr noundef %2, i1 noundef zeroext %3) #0 {
  %5 = alloca ptr, align 8
  %6 = alloca ptr, align 8
  %7 = alloca ptr, align 8
  %8 = alloca i8, align 1
  %9 = alloca ptr, align 8
  %10 = alloca %struct.lv_color32_t, align 1
  %11 = alloca i24, align 8
  %12 = alloca %struct.lv_color32_t, align 1
  %13 = alloca i24, align 8
  store ptr %0, ptr %5, align 8, !tbaa !3
  store ptr %1, ptr %6, align 8, !tbaa !3
  store ptr %2, ptr %7, align 8, !tbaa !3
  %14 = zext i1 %3 to i8
  store i8 %14, ptr %8, align 1, !tbaa !235
  call void @llvm.lifetime.start.p0(i64 8, ptr %9) #8
  %15 = load ptr, ptr %5, align 8, !tbaa !3
  store ptr %15, ptr %9, align 8, !tbaa !3
  %16 = load i8, ptr %8, align 1, !tbaa !235, !range !34, !noundef !35
  %17 = trunc i8 %16 to i1
  br i1 %17, label %18, label %37

18:                                               ; preds = %4
  %19 = load ptr, ptr %6, align 8, !tbaa !3
  %20 = getelementptr inbounds nuw %struct._lv_vector_draw_dsc_t, ptr %19, i32 0, i32 0
  %21 = getelementptr inbounds nuw %struct._lv_vector_fill_dsc_t, ptr %20, i32 0, i32 0
  store i32 0, ptr %21, align 8, !tbaa !236
  %22 = load ptr, ptr %6, align 8, !tbaa !3
  %23 = getelementptr inbounds nuw %struct._lv_vector_draw_dsc_t, ptr %22, i32 0, i32 0
  %24 = getelementptr inbounds nuw %struct._lv_vector_fill_dsc_t, ptr %23, i32 0, i32 1
  call void @llvm.lifetime.start.p0(i64 4, ptr %10) #8
  %25 = load ptr, ptr %9, align 8, !tbaa !3
  %26 = getelementptr inbounds nuw %struct.lv_svg_render_solid_t, ptr %25, i32 0, i32 1
  call void @llvm.memcpy.p0.p0.i64(ptr align 8 %11, ptr align 8 %26, i64 3, i1 false)
  %27 = load i24, ptr %11, align 8
  %28 = call i32 @lv_color_to_32(i24 %27, i8 noundef zeroext -1)
  store i32 %28, ptr %10, align 1
  call void @llvm.memcpy.p0.p0.i64(ptr align 4 %24, ptr align 1 %10, i64 4, i1 false), !tbaa.struct !78
  call void @llvm.lifetime.end.p0(i64 4, ptr %10) #8
  %29 = load ptr, ptr %9, align 8, !tbaa !3
  %30 = getelementptr inbounds nuw %struct.lv_svg_render_solid_t, ptr %29, i32 0, i32 2
  %31 = load float, ptr %30, align 4, !tbaa !234
  %32 = fmul float %31, 2.550000e+02
  %33 = fptoui float %32 to i8
  %34 = load ptr, ptr %6, align 8, !tbaa !3
  %35 = getelementptr inbounds nuw %struct._lv_vector_draw_dsc_t, ptr %34, i32 0, i32 0
  %36 = getelementptr inbounds nuw %struct._lv_vector_fill_dsc_t, ptr %35, i32 0, i32 2
  store i8 %33, ptr %36, align 8, !tbaa !159
  br label %56

37:                                               ; preds = %4
  %38 = load ptr, ptr %6, align 8, !tbaa !3
  %39 = getelementptr inbounds nuw %struct._lv_vector_draw_dsc_t, ptr %38, i32 0, i32 1
  %40 = getelementptr inbounds nuw %struct._lv_vector_stroke_dsc_t, ptr %39, i32 0, i32 0
  store i32 0, ptr %40, align 8, !tbaa !237
  %41 = load ptr, ptr %6, align 8, !tbaa !3
  %42 = getelementptr inbounds nuw %struct._lv_vector_draw_dsc_t, ptr %41, i32 0, i32 1
  %43 = getelementptr inbounds nuw %struct._lv_vector_stroke_dsc_t, ptr %42, i32 0, i32 1
  call void @llvm.lifetime.start.p0(i64 4, ptr %12) #8
  %44 = load ptr, ptr %9, align 8, !tbaa !3
  %45 = getelementptr inbounds nuw %struct.lv_svg_render_solid_t, ptr %44, i32 0, i32 1
  call void @llvm.memcpy.p0.p0.i64(ptr align 8 %13, ptr align 8 %45, i64 3, i1 false)
  %46 = load i24, ptr %13, align 8
  %47 = call i32 @lv_color_to_32(i24 %46, i8 noundef zeroext -1)
  store i32 %47, ptr %12, align 1
  call void @llvm.memcpy.p0.p0.i64(ptr align 4 %43, ptr align 1 %12, i64 4, i1 false), !tbaa.struct !78
  call void @llvm.lifetime.end.p0(i64 4, ptr %12) #8
  %48 = load ptr, ptr %9, align 8, !tbaa !3
  %49 = getelementptr inbounds nuw %struct.lv_svg_render_solid_t, ptr %48, i32 0, i32 2
  %50 = load float, ptr %49, align 4, !tbaa !234
  %51 = fmul float %50, 2.550000e+02
  %52 = fptoui float %51 to i8
  %53 = load ptr, ptr %6, align 8, !tbaa !3
  %54 = getelementptr inbounds nuw %struct._lv_vector_draw_dsc_t, ptr %53, i32 0, i32 1
  %55 = getelementptr inbounds nuw %struct._lv_vector_stroke_dsc_t, ptr %54, i32 0, i32 2
  store i8 %52, ptr %55, align 8, !tbaa !238
  br label %56

56:                                               ; preds = %37, %18
  call void @llvm.lifetime.end.p0(i64 8, ptr %9) #8
  ret void
}