; Function Attrs: nounwind uwtable
define internal void @_set_solid_ref(ptr nocapture noundef readonly %0, ptr nocapture noundef writeonly %1, ptr nocapture readnone %2, i1 noundef zeroext %3) #0 {
  br i1 %3, label %5, label %6

5:                                                ; preds = %4
  store i32 0, ptr %1, align 8, !tbaa !238
  br label %8

6:                                                ; preds = %4
  %7 = getelementptr inbounds nuw i8, ptr %1, i64 248
  store i32 0, ptr %7, align 8, !tbaa !140
  br label %8

8:                                                ; preds = %6, %5
  %.sink = phi i64 [ 252, %6 ], [ 4, %5 ]
  %.sink16 = phi i64 [ 256, %6 ], [ 8, %5 ]
  %9 = getelementptr inbounds nuw i8, ptr %1, i64 %.sink
  %10 = getelementptr inbounds nuw i8, ptr %0, i64 576
  %.0.copyload = load i24, ptr %10, align 8
  %11 = tail call i32 @lv_color_to_32(i24 %.0.copyload, i8 noundef zeroext -1) #9
  store i32 %11, ptr %9, align 4
  %12 = getelementptr inbounds nuw i8, ptr %0, i64 580
  %13 = load float, ptr %12, align 4, !tbaa !237
  %14 = fmul float %13, 2.550000e+02
  %15 = fptoui float %14 to i8
  %16 = getelementptr inbounds nuw i8, ptr %1, i64 %.sink16
  store i8 %15, ptr %16, align 8, !tbaa !165
  ret void
}